; Function Attrs: mustprogress nounwind uwtable
define internal void @_ZN9grpc_core12_GLOBAL__N_15RlsLb18ChildPolicyWrapper17ChildPolicyHelperD2Ev(ptr nocapture noundef nonnull align 8 dereferenceable(16) %this) unnamed_addr #11 align 2 personality ptr @__gxx_personality_v0 {
entry:
  store ptr getelementptr inbounds ({ [13 x ptr] }, ptr @_ZTVN9grpc_core12_GLOBAL__N_15RlsLb18ChildPolicyWrapper17ChildPolicyHelperE, i64 0, i32 0, i64 2), ptr %this, align 8
  %wrapper_ = getelementptr inbounds i8, ptr %this, i64 8
  %0 = load ptr, ptr %wrapper_, align 8
  store ptr null, ptr %wrapper_, align 8
  %cmp.not.i = icmp eq ptr %0, null
  br i1 %cmp.not.i, label %_ZN9grpc_core17WeakRefCountedPtrINS_12_GLOBAL__N_15RlsLb18ChildPolicyWrapperEED2Ev.exit, label %if.then.i

if.then.i:                                        ; preds = %entry
  %refs_.i.i = getelementptr inbounds i8, ptr %0, i64 8
  %1 = atomicrmw sub ptr %refs_.i.i, i64 1 acq_rel, align 8
  %cmp.not.i.i = icmp eq i64 %1, 1
  br i1 %cmp.not.i.i, label %delete.notnull.i.i, label %invoke.cont2

delete.notnull.i.i:                               ; preds = %if.then.i
  %vtable.i.i = load ptr, ptr %0, align 8
  %vfn.i.i = getelementptr inbounds i8, ptr %vtable.i.i, i64 16
  %2 = load ptr, ptr %vfn.i.i, align 8
  tail call void %2(ptr noundef nonnull align 8 dereferenceable(96) %0) #31
  br label %invoke.cont2

invoke.cont2:                                     ; preds = %delete.notnull.i.i, %if.then.i
  %wrapper_.val.pr = load ptr, ptr %wrapper_, align 8
  %cmp.not.i1 = icmp eq ptr %wrapper_.val.pr, null
  br i1 %cmp.not.i1, label %_ZN9grpc_core17WeakRefCountedPtrINS_12_GLOBAL__N_15RlsLb18ChildPolicyWrapperEED2Ev.exit, label %if.then.i2

if.then.i2:                                       ; preds = %invoke.cont2
  %refs_.i.i3 = getelementptr inbounds i8, ptr %wrapper_.val.pr, i64 8
  %3 = atomicrmw sub ptr %refs_.i.i3, i64 1 acq_rel, align 8
  %cmp.not.i.i4 = icmp eq i64 %3, 1
  br i1 %cmp.not.i.i4, label %delete.notnull.i.i5, label %_ZN9grpc_core17WeakRefCountedPtrINS_12_GLOBAL__N_15RlsLb18ChildPolicyWrapperEED2Ev.exit

delete.notnull.i.i5:                              ; preds = %if.then.i2
  %vtable.i.i6 = load ptr, ptr %wrapper_.val.pr, align 8
  %vfn.i.i7 = getelementptr inbounds i8, ptr %vtable.i.i6, i64 16
  %4 = load ptr, ptr %vfn.i.i7, align 8
  tail call void %4(ptr noundef nonnull align 8 dereferenceable(96) %wrapper_.val.pr) #31
  br label %_ZN9grpc_core17WeakRefCountedPtrINS_12_GLOBAL__N_15RlsLb18ChildPolicyWrapperEED2Ev.exit

_ZN9grpc_core17WeakRefCountedPtrINS_12_GLOBAL__N_15RlsLb18ChildPolicyWrapperEED2Ev.exit: ; preds = %entry, %invoke.cont2, %if.then.i2, %delete.notnull.i.i5
  ret void
}